; Function Attrs: nounwind uwtable
define void @dt_dev_pixelpipe_cleanup(ptr noundef %0) local_unnamed_addr #0 {
  %2 = getelementptr inbounds nuw i8, ptr %0, i64 440
  %3 = tail call i32 @pthread_mutex_lock(ptr noundef nonnull %2) #27
  tail call void @dt_dev_pixelpipe_cleanup_nodes(ptr noundef %0)
  %4 = getelementptr inbounds nuw i8, ptr %0, i64 620
  %5 = load i32, ptr %4, align 4, !tbaa !28
  %6 = icmp eq i32 %5, 2
  br i1 %6, label %7, label %24

7:                                                ; preds = %1
  %8 = load i32, ptr getelementptr inbounds nuw (i8, ptr @darktable, i64 8), align 8, !tbaa !48
  %9 = and i32 %8, 33554432
  %.not.i = icmp eq i32 %9, 0
  br i1 %.not.i, label %24, label %10

10:                                               ; preds = %7
  %11 = getelementptr inbounds nuw i8, ptr %0, i64 96
  %12 = load i64, ptr %11, align 8, !tbaa !80
  %13 = uitofp i64 %12 to double
  %14 = getelementptr inbounds nuw i8, ptr %0, i64 128
  %15 = load i64, ptr %14, align 16, !tbaa !81
  %16 = uitofp i64 %15 to double
  %17 = tail call reassoc nsz arcp contract afn double @llvm.maxnum.f64(double %16, double 1.000000e+00)
  %18 = fdiv reassoc nsz arcp contract afn double %13, %17
  %19 = getelementptr inbounds nuw i8, ptr %0, i64 88
  %20 = load i64, ptr %19, align 8, !tbaa !82
  %21 = uitofp i64 %20 to double
  %22 = tail call reassoc nsz arcp contract afn double @llvm.maxnum.f64(double %21, double 1.000000e+00)
  %23 = fdiv reassoc nsz arcp contract afn double %13, %22
  tail call void (ptr, ...) @dt_print_ext(ptr noundef nonnull @.str, double noundef %18, double noundef %23) #27
  br label %24

24:                                               ; preds = %10, %7, %1
  %25 = load i32, ptr %0, align 8, !tbaa !6
  %26 = icmp sgt i32 %25, 0
  br i1 %26, label %.lr.ph.i, label %dt_dev_pixelpipe_cache_cleanup.exit

.lr.ph.i:                                         ; preds = %24
  %27 = getelementptr inbounds nuw i8, ptr %0, i64 24
  br label %28

28:                                               ; preds = %28, %.lr.ph.i
  %indvars.iv.i = phi i64 [ 0, %.lr.ph.i ], [ %indvars.iv.next.i, %28 ]
  %29 = load ptr, ptr %27, align 8, !tbaa !19
  %30 = getelementptr inbounds nuw ptr, ptr %29, i64 %indvars.iv.i
  %31 = load ptr, ptr %30, align 8, !tbaa !27
  tail call void @free(ptr noundef %31) #27
  %32 = load ptr, ptr %27, align 8, !tbaa !19
  %33 = getelementptr inbounds nuw ptr, ptr %32, i64 %indvars.iv.i
  store ptr null, ptr %33, align 8, !tbaa !27
  %indvars.iv.next.i = add nuw nsw i64 %indvars.iv.i, 1
  %34 = load i32, ptr %0, align 8, !tbaa !6
  %35 = sext i32 %34 to i64
  %36 = icmp slt i64 %indvars.iv.next.i, %35
  br i1 %36, label %28, label %dt_dev_pixelpipe_cache_cleanup.exit

dt_dev_pixelpipe_cache_cleanup.exit:              ; preds = %28, %24
  %37 = getelementptr inbounds nuw i8, ptr %0, i64 24
  %38 = load ptr, ptr %37, align 8, !tbaa !19
  tail call void @free(ptr noundef %38) #27
  store ptr null, ptr %37, align 8, !tbaa !19
  %39 = getelementptr inbounds nuw i8, ptr %0, i64 2552
  %40 = load ptr, ptr %39, align 8, !tbaa !169
  tail call void @free(ptr noundef %40) #27
  %41 = getelementptr inbounds nuw i8, ptr %0, i64 2496
  store i32 -1, ptr %41, align 16, !tbaa !155
  %42 = getelementptr inbounds nuw i8, ptr %0, i64 2504
  %43 = load ptr, ptr %42, align 8, !tbaa !156
  tail call void @g_free(ptr noundef %43) #27
  store ptr null, ptr %42, align 8, !tbaa !156
  %44 = load i32, ptr %4, align 4, !tbaa !28
  %45 = and i32 %44, 22
  %.not = icmp eq i32 %45, 0
  br i1 %.not, label %49, label %46

46:                                               ; preds = %dt_dev_pixelpipe_cache_cleanup.exit
  %47 = getelementptr inbounds nuw i8, ptr %0, i64 352
  %48 = load ptr, ptr %47, align 16, !tbaa !148
  tail call void @g_free(ptr noundef %48) #27
  br label %49

49:                                               ; preds = %46, %dt_dev_pixelpipe_cache_cleanup.exit
  %50 = getelementptr inbounds nuw i8, ptr %0, i64 352
  store ptr null, ptr %50, align 16, !tbaa !148
  %51 = getelementptr inbounds nuw i8, ptr %0, i64 368
  store i32 0, ptr %51, align 16, !tbaa !140
  %52 = getelementptr inbounds nuw i8, ptr %0, i64 372
  store i32 0, ptr %52, align 4, !tbaa !144
  %53 = tail call i32 @pthread_mutex_unlock(ptr noundef nonnull %2) #27
  %54 = tail call i32 @pthread_mutex_destroy(ptr noundef nonnull %2) #27
  %55 = getelementptr inbounds nuw i8, ptr %0, i64 580
  store i32 0, ptr %55, align 4, !tbaa !152
  %56 = getelementptr inbounds nuw i8, ptr %0, i64 2536
  %57 = load ptr, ptr %56, align 8, !tbaa !170
  %.not20 = icmp eq ptr %57, null
  br i1 %.not20, label %59, label %58

58:                                               ; preds = %49
  tail call void @g_list_free_full(ptr noundef nonnull %57, ptr noundef nonnull @dt_masks_free_form) #27
  store ptr null, ptr %56, align 8, !tbaa !170
  br label %59

59:                                               ; preds = %58, %49
  %60 = getelementptr inbounds nuw i8, ptr %0, i64 480
  %61 = tail call i32 @pthread_mutex_destroy(ptr noundef nonnull %60) #27
  %62 = getelementptr inbounds nuw i8, ptr %0, i64 400
  %63 = tail call i32 @pthread_mutex_destroy(ptr noundef nonnull %62) #27
  ret void
}